target datalayout = "e-m:e-p270:32:32-p271:32:32-p272:64:64-i64:64-i128:128-f80:128-n8:16:32:64-S128"
target triple = "x86_64-pc-linux-gnu"

%struct.Ses_Man_t_ = type { ptr, ptr, i32, i32, i32, i32, i32, i32, i32, ptr, [8 x i32], i32, i32, i32, i32, i32, i32, i32, i32, i32, [4 x i64], ptr, ptr, i32, i32, i32, i32, i32, i32, i32, ptr, [8 x i32], [100 x i64], i32, i32, i32, i32, i32, i32, i32, i32, i32, i32, i32, i64, i64, i64, i64, i64, i64, i32, i32, i32, i32 }
%struct.Vec_Int_t_ = type { i32, i32, ptr }

; Function Attrs: inlinehint nounwind uwtable
define internal void @Vec_IntFree(ptr noundef %0) #2 {
  %2 = alloca ptr, align 8
  store ptr %0, ptr %2, align 8, !tbaa !43
  %3 = load ptr, ptr %2, align 8, !tbaa !43
  %4 = getelementptr inbounds nuw %struct.Vec_Int_t_, ptr %3, i32 0, i32 2
  %5 = load ptr, ptr %4, align 8, !tbaa !212
  %6 = icmp ne ptr %5, null
  br i1 %6, label %7, label %13

7:                                                ; preds = %1
  %8 = load ptr, ptr %2, align 8, !tbaa !43
  %9 = getelementptr inbounds nuw %struct.Vec_Int_t_, ptr %8, i32 0, i32 2
  %10 = load ptr, ptr %9, align 8, !tbaa !212
  call void @free(ptr noundef %10) #14
  %11 = load ptr, ptr %2, align 8, !tbaa !43
  %12 = getelementptr inbounds nuw %struct.Vec_Int_t_, ptr %11, i32 0, i32 2
  store ptr null, ptr %12, align 8, !tbaa !212
  br label %14

13:                                               ; preds = %1
  br label %14

14:                                               ; preds = %13, %7
  %15 = load ptr, ptr %2, align 8, !tbaa !43
  %16 = icmp ne ptr %15, null
  br i1 %16, label %17, label %19

17:                                               ; preds = %14
  %18 = load ptr, ptr %2, align 8, !tbaa !43
  call void @free(ptr noundef %18) #14
  store ptr null, ptr %2, align 8, !tbaa !43
  br label %20

19:                                               ; preds = %14
  br label %20

20:                                               ; preds = %19, %17
  ret void
}

; Function Attrs: inlinehint nounwind uwtable
define internal void @Ses_ManCleanLight(ptr noundef %0) #2 {
  %2 = alloca ptr, align 8
  %3 = alloca i32, align 4
  %4 = alloca i32, align 4
  store ptr %0, ptr %2, align 8, !tbaa !66
  call void @llvm.lifetime.start.p0(i64 4, ptr %3) #14
  call void @llvm.lifetime.start.p0(i64 4, ptr %4) #14
  store i32 0, ptr %3, align 4, !tbaa !10
  br label %5

5:                                                ; preds = %49, %1
  %6 = load i32, ptr %3, align 4, !tbaa !10
  %7 = load ptr, ptr %2, align 8, !tbaa !66
  %8 = getelementptr inbounds nuw %struct.Ses_Man_t_, ptr %7, i32 0, i32 4
  %9 = load i32, ptr %8, align 8, !tbaa !79
  %10 = icmp slt i32 %6, %9
  br i1 %10, label %11, label %52

11:                                               ; preds = %5
  %12 = load ptr, ptr %2, align 8, !tbaa !66
  %13 = getelementptr inbounds nuw %struct.Ses_Man_t_, ptr %12, i32 0, i32 2
  %14 = load i32, ptr %13, align 8, !tbaa !74
  %15 = load i32, ptr %3, align 4, !tbaa !10
  %16 = ashr i32 %14, %15
  %17 = and i32 %16, 1
  %18 = icmp ne i32 %17, 0
  br i1 %18, label %19, label %48

19:                                               ; preds = %11
  store i32 0, ptr %4, align 4, !tbaa !10
  br label %20

20:                                               ; preds = %44, %19
  %21 = load i32, ptr %4, align 4, !tbaa !10
  %22 = icmp slt i32 %21, 4
  br i1 %22, label %23, label %47

23:                                               ; preds = %20
  %24 = load ptr, ptr %2, align 8, !tbaa !66
  %25 = getelementptr inbounds nuw %struct.Ses_Man_t_, ptr %24, i32 0, i32 1
  %26 = load ptr, ptr %25, align 8, !tbaa !77
  %27 = load i32, ptr %3, align 4, !tbaa !10
  %28 = shl i32 %27, 2
  %29 = load i32, ptr %4, align 4, !tbaa !10
  %30 = add nsw i32 %28, %29
  %31 = sext i32 %30 to i64
  %32 = getelementptr inbounds i64, ptr %26, i64 %31
  %33 = load i64, ptr %32, align 8, !tbaa !37
  %34 = xor i64 %33, -1
  %35 = load ptr, ptr %2, align 8, !tbaa !66
  %36 = getelementptr inbounds nuw %struct.Ses_Man_t_, ptr %35, i32 0, i32 1
  %37 = load ptr, ptr %36, align 8, !tbaa !77
  %38 = load i32, ptr %3, align 4, !tbaa !10
  %39 = shl i32 %38, 2
  %40 = load i32, ptr %4, align 4, !tbaa !10
  %41 = add nsw i32 %39, %40
  %42 = sext i32 %41 to i64
  %43 = getelementptr inbounds i64, ptr %37, i64 %42
  store i64 %34, ptr %43, align 8, !tbaa !37
  br label %44

44:                                               ; preds = %23
  %45 = load i32, ptr %4, align 4, !tbaa !10
  %46 = add nsw i32 %45, 1
  store i32 %46, ptr %4, align 4, !tbaa !10
  br label %20, !llvm.loop !195

47:                                               ; preds = %20
  br label %48

48:                                               ; preds = %47, %11
  br label %49

49:                                               ; preds = %48
  %50 = load i32, ptr %3, align 4, !tbaa !10
  %51 = add nsw i32 %50, 1
  store i32 %51, ptr %3, align 4, !tbaa !10
  br label %5, !llvm.loop !196

52:                                               ; preds = %5
  %53 = load ptr, ptr %2, align 8, !tbaa !66
  %54 = getelementptr inbounds nuw %struct.Ses_Man_t_, ptr %53, i32 0, i32 9
  %55 = load ptr, ptr %54, align 8, !tbaa !83
  %56 = icmp ne ptr %55, null
  br i1 %56, label %57, label %80

57:                                               ; preds = %52
  store i32 0, ptr %4, align 4, !tbaa !10
  br label %58

58:                                               ; preds = %76, %57
  %59 = load i32, ptr %4, align 4, !tbaa !10
  %60 = load ptr, ptr %2, align 8, !tbaa !66
  %61 = getelementptr inbounds nuw %struct.Ses_Man_t_, ptr %60, i32 0, i32 3
  %62 = load i32, ptr %61, align 4, !tbaa !78
  %63 = icmp slt i32 %59, %62
  br i1 %63, label %64, label %79

64:                                               ; preds = %58
  %65 = load ptr, ptr %2, align 8, !tbaa !66
  %66 = getelementptr inbounds nuw %struct.Ses_Man_t_, ptr %65, i32 0, i32 11
  %67 = load i32, ptr %66, align 8, !tbaa !84
  %68 = load ptr, ptr %2, align 8, !tbaa !66
  %69 = getelementptr inbounds nuw %struct.Ses_Man_t_, ptr %68, i32 0, i32 9
  %70 = load ptr, ptr %69, align 8, !tbaa !83
  %71 = load i32, ptr %4, align 4, !tbaa !10
  %72 = sext i32 %71 to i64
  %73 = getelementptr inbounds i32, ptr %70, i64 %72
  %74 = load i32, ptr %73, align 4, !tbaa !10
  %75 = add nsw i32 %74, %67
  store i32 %75, ptr %73, align 4, !tbaa !10
  br label %76

76:                                               ; preds = %64
  %77 = load i32, ptr %4, align 4, !tbaa !10
  %78 = add nsw i32 %77, 1
  store i32 %78, ptr %4, align 4, !tbaa !10
  br label %58, !llvm.loop !197

79:                                               ; preds = %58
  br label %80

80:                                               ; preds = %79, %52
  %81 = load ptr, ptr %2, align 8, !tbaa !66
  %82 = getelementptr inbounds nuw %struct.Ses_Man_t_, ptr %81, i32 0, i32 21
  %83 = load ptr, ptr %82, align 8, !tbaa !91
  call void @Vec_IntFree(ptr noundef %83)
  %84 = load ptr, ptr %2, align 8, !tbaa !66
  %85 = getelementptr inbounds nuw %struct.Ses_Man_t_, ptr %84, i32 0, i32 22
  %86 = load ptr, ptr %85, align 8, !tbaa !92
  call void @Vec_IntFree(ptr noundef %86)
  %87 = load ptr, ptr %2, align 8, !tbaa !66
  %88 = getelementptr inbounds nuw %struct.Ses_Man_t_, ptr %87, i32 0, i32 30
  %89 = load ptr, ptr %88, align 8, !tbaa !93
  call void @Vec_IntFree(ptr noundef %89)
  %90 = load ptr, ptr %2, align 8, !tbaa !66
  %91 = icmp ne ptr %90, null
  br i1 %91, label %92, label %94

92:                                               ; preds = %80
  %93 = load ptr, ptr %2, align 8, !tbaa !66
  call void @free(ptr noundef %93) #14
  store ptr null, ptr %2, align 8, !tbaa !66
  br label %95

94:                                               ; preds = %80
  br label %95

95:                                               ; preds = %94, %92
  call void @llvm.lifetime.end.p0(i64 4, ptr %4) #14
  call void @llvm.lifetime.end.p0(i64 4, ptr %3) #14
  ret void
}