; Function Attrs: inlinehint nounwind uwtable
define internal fastcc void @Ses_ManCleanLight(ptr noundef captures(none) %0) unnamed_addr #6 {
  %2 = getelementptr inbounds nuw i8, ptr %0, i64 24
  %3 = load i32, ptr %2, align 8, !tbaa !97
  %4 = icmp sgt i32 %3, 0
  br i1 %4, label %.lr.ph, label %._crit_edge

.lr.ph:                                           ; preds = %1
  %5 = getelementptr inbounds nuw i8, ptr %0, i64 16
  %6 = load i32, ptr %5, align 8, !tbaa !93
  %7 = getelementptr inbounds nuw i8, ptr %0, i64 8
  %wide.trip.count = zext nneg i32 %3 to i64
  br label %8

8:                                                ; preds = %.lr.ph, %.loopexit33
  %indvars.iv39 = phi i64 [ 0, %.lr.ph ], [ %indvars.iv.next40, %.loopexit33 ]
  %9 = trunc nuw nsw i64 %indvars.iv39 to i32
  %10 = shl nuw i32 1, %9
  %11 = and i32 %6, %10
  %.not27 = icmp eq i32 %11, 0
  br i1 %.not27, label %.loopexit33, label %.preheader32

.preheader32:                                     ; preds = %8
  %12 = load ptr, ptr %7, align 8, !tbaa !95
  %13 = shl i32 %9, 2
  %14 = sext i32 %13 to i64
  %invariant.gep = getelementptr i64, ptr %12, i64 %14
  br label %15

15:                                               ; preds = %.preheader32, %15
  %indvars.iv = phi i64 [ 0, %.preheader32 ], [ %indvars.iv.next, %15 ]
  %gep = getelementptr i64, ptr %invariant.gep, i64 %indvars.iv
  %16 = load i64, ptr %gep, align 8, !tbaa !3
  %17 = xor i64 %16, -1
  store i64 %17, ptr %gep, align 8, !tbaa !3
  %indvars.iv.next = add nuw nsw i64 %indvars.iv, 1
  %exitcond.not = icmp eq i64 %indvars.iv.next, 4
  br i1 %exitcond.not, label %.loopexit33, label %15, !llvm.loop !211

.loopexit33:                                      ; preds = %15, %8
  %indvars.iv.next40 = add nuw nsw i64 %indvars.iv39, 1
  %exitcond42.not = icmp eq i64 %indvars.iv.next40, %wide.trip.count
  br i1 %exitcond42.not, label %._crit_edge, label %8, !llvm.loop !212

._crit_edge:                                      ; preds = %.loopexit33, %1
  %18 = getelementptr inbounds nuw i8, ptr %0, i64 48
  %19 = load ptr, ptr %18, align 8, !tbaa !101
  %.not = icmp eq ptr %19, null
  br i1 %.not, label %.loopexit, label %.preheader

.preheader:                                       ; preds = %._crit_edge
  %20 = getelementptr inbounds nuw i8, ptr %0, i64 20
  %21 = load i32, ptr %20, align 4, !tbaa !96
  %22 = icmp sgt i32 %21, 0
  br i1 %22, label %.lr.ph37, label %.loopexit

.lr.ph37:                                         ; preds = %.preheader
  %23 = getelementptr inbounds nuw i8, ptr %0, i64 88
  br label %24

24:                                               ; preds = %.lr.ph37, %24
  %indvars.iv43 = phi i64 [ 0, %.lr.ph37 ], [ %indvars.iv.next44, %24 ]
  %25 = load i32, ptr %23, align 8, !tbaa !102
  %26 = getelementptr inbounds nuw i32, ptr %19, i64 %indvars.iv43
  %27 = load i32, ptr %26, align 4, !tbaa !7
  %28 = add nsw i32 %27, %25
  store i32 %28, ptr %26, align 4, !tbaa !7
  %indvars.iv.next44 = add nuw nsw i64 %indvars.iv43, 1
  %29 = load i32, ptr %20, align 4, !tbaa !96
  %30 = sext i32 %29 to i64
  %31 = icmp slt i64 %indvars.iv.next44, %30
  br i1 %31, label %24, label %.loopexit, !llvm.loop !213

.loopexit:                                        ; preds = %24, %.preheader, %._crit_edge
  %32 = getelementptr inbounds nuw i8, ptr %0, i64 160
  %33 = load ptr, ptr %32, align 8, !tbaa !108
  %34 = getelementptr inbounds nuw i8, ptr %33, i64 8
  %35 = load ptr, ptr %34, align 8, !tbaa !44
  %.not.i = icmp eq ptr %35, null
  br i1 %.not.i, label %Vec_IntFree.exit, label %36

36:                                               ; preds = %.loopexit
  tail call void @free(ptr noundef nonnull %35) #29
  br label %Vec_IntFree.exit

Vec_IntFree.exit:                                 ; preds = %.loopexit, %36
  tail call void @free(ptr noundef nonnull %33) #29
  %37 = getelementptr inbounds nuw i8, ptr %0, i64 168
  %38 = load ptr, ptr %37, align 8, !tbaa !109
  %39 = getelementptr inbounds nuw i8, ptr %38, i64 8
  %40 = load ptr, ptr %39, align 8, !tbaa !44
  %.not.i28 = icmp eq ptr %40, null
  br i1 %.not.i28, label %Vec_IntFree.exit29, label %41

41:                                               ; preds = %Vec_IntFree.exit
  tail call void @free(ptr noundef nonnull %40) #29
  br label %Vec_IntFree.exit29

Vec_IntFree.exit29:                               ; preds = %Vec_IntFree.exit, %41
  tail call void @free(ptr noundef nonnull %38) #29
  %42 = getelementptr inbounds nuw i8, ptr %0, i64 208
  %43 = load ptr, ptr %42, align 8, !tbaa !110
  %44 = getelementptr inbounds nuw i8, ptr %43, i64 8
  %45 = load ptr, ptr %44, align 8, !tbaa !44
  %.not.i30 = icmp eq ptr %45, null
  br i1 %.not.i30, label %47, label %46

46:                                               ; preds = %Vec_IntFree.exit29
  tail call void @free(ptr noundef nonnull %45) #29
  br label %47

47:                                               ; preds = %Vec_IntFree.exit29, %46
  tail call void @free(ptr noundef nonnull %43) #29
  tail call void @free(ptr noundef nonnull %0) #29
  ret void
}